; Function Attrs: mustprogress nofree norecurse nosync nounwind willreturn memory(argmem: read) uwtable
define noundef zeroext i1 @_ZNK3net20QuicUnackedPacketMap36IsPacketUsefulForRetransmittableDataERKNS_16TransmissionInfoE(ptr noundef nonnull readonly align 8 captures(none) dereferenceable(120) %0, ptr noundef nonnull readonly align 8 captures(none) dereferenceable(80) %1) local_unnamed_addr #7 align 2 {
  %3 = load ptr, ptr %1, align 8, !tbaa !105
  %4 = getelementptr inbounds nuw i8, ptr %1, i64 8
  %5 = load ptr, ptr %4, align 8, !tbaa !105
  %6 = icmp ne ptr %3, %5
  %7 = getelementptr inbounds nuw i8, ptr %1, i64 48
  %8 = load i64, ptr %7, align 8
  %9 = getelementptr inbounds nuw i8, ptr %0, i64 8
  %10 = load i64, ptr %9, align 8
  %11 = icmp ugt i64 %8, %10
  %12 = select i1 %6, i1 true, i1 %11
  ret i1 %12
}